(lp0
S'poi'
p1
aS'salary'
p2
aS'bonus'
p3
aS'deferral_payments'
p4
aS'total_payments'
p5
aS'exercised_stock_options'
p6
aS'restricted_stock'
p7
aS'restricted_stock_deferred'
p8
aS'total_stock_value'
p9
aS'expenses'
p10
aS'loan_advances'
p11
aS'other'
p12
aS'deferred_income'
p13
aS'long_term_incentive'
p14
aS'director_fees'
p15
aS'to_messages'
p16
aS'from_poi_to_this_person'
p17
aS'from_messages'
p18
aS'from_this_person_to_poi'
p19
aS'shared_receipt_with_poi'
p20
aS'salary_to_avg_salary'
p21
aS'bonus_to_avg_bonus'
p22
a.